(dp0
S'MAE111'
p1
(S'C\xc3\xa1lculo Infinitesimal I'
p2
I6
F7.7000000000000002
tp3
sS'MAB111'
p4
(S'Fundamento da Computa\xc3\xa7\xc3\xa3o Digital'
p5
I4
F9.3000000000000007
tp6
sS'MAB624'
p7
(S'N\xc3\xbameros Inteiros e Criptografia'
p8
I4
F10.0
tp9
sS'MAE115'
p10
(S'Calculo Vetorial e Geometria Analitica'
p11
I4
F8.0
tp12
sS'MAB120'
p13
(S'Computa\xc3\xa7\xc3\xa3o para Inform\xc3\xa1tica'
p14
I5
F8.9000000000000004
tp15
s.